target datalayout = "e-m:e-p270:32:32-p271:32:32-p272:64:64-i64:64-i128:128-f80:128-n8:16:32:64-S128"
target triple = "x86_64-pc-linux-gnu"

%"class.Iex_3_4::BaseExc" = type { %"class.std::exception", %"class.std::__cxx11::basic_string", %"class.std::__cxx11::basic_string" }
%"class.std::exception" = type { ptr }
%"class.std::__cxx11::basic_string" = type { %"struct.std::__cxx11::basic_string<char>::_Alloc_hider", i64, %union.anon }
%"struct.std::__cxx11::basic_string<char>::_Alloc_hider" = type { ptr }
%union.anon = type { i64, [8 x i8] }

; Function Attrs: mustprogress uwtable
define available_externally noundef nonnull align 8 dereferenceable(32) ptr @_ZNSt7__cxx1112basic_stringIcSt11char_traitsIcESaIcEE6assignERKS4_(ptr noundef nonnull align 8 dereferenceable(32) %0, ptr noundef nonnull align 8 dereferenceable(32) %1) #1 align 2 {
  %3 = alloca ptr, align 8
  %4 = alloca ptr, align 8
  store ptr %0, ptr %3, align 8, !tbaa !17
  store ptr %1, ptr %4, align 8, !tbaa !17
  %5 = load ptr, ptr %3, align 8
  %6 = load ptr, ptr %4, align 8, !tbaa !17
  call void @_ZNSt7__cxx1112basic_stringIcSt11char_traitsIcESaIcEE9_M_assignERKS4_(ptr noundef nonnull align 8 dereferenceable(32) %5, ptr noundef nonnull align 8 dereferenceable(32) %6)
  ret ptr %5
}

; Function Attrs: mustprogress uwtable
define available_externally noundef nonnull align 8 dereferenceable(32) ptr @_ZNSt7__cxx1112basic_stringIcSt11char_traitsIcESaIcEEaSERKS4_(ptr noundef nonnull align 8 dereferenceable(32) %0, ptr noundef nonnull align 8 dereferenceable(32) %1) #1 align 2 {
  %3 = alloca ptr, align 8
  %4 = alloca ptr, align 8
  store ptr %0, ptr %3, align 8, !tbaa !17
  store ptr %1, ptr %4, align 8, !tbaa !17
  %5 = load ptr, ptr %3, align 8
  %6 = load ptr, ptr %4, align 8, !tbaa !17
  %7 = call noundef nonnull align 8 dereferenceable(32) ptr @_ZNSt7__cxx1112basic_stringIcSt11char_traitsIcESaIcEE6assignERKS4_(ptr noundef nonnull align 8 dereferenceable(32) %5, ptr noundef nonnull align 8 dereferenceable(32) %6)
  ret ptr %7
}

; Function Attrs: mustprogress uwtable
define noundef nonnull align 8 dereferenceable(72) ptr @_ZN7Iex_3_47BaseExcaSERKS0_(ptr noundef nonnull align 8 dereferenceable(72) %0, ptr noundef nonnull align 8 dereferenceable(72) %1) #1 align 2 {
  %3 = alloca ptr, align 8
  %4 = alloca ptr, align 8
  store ptr %0, ptr %3, align 8, !tbaa !7
  store ptr %1, ptr %4, align 8, !tbaa !7
  %5 = load ptr, ptr %3, align 8
  %6 = load ptr, ptr %4, align 8, !tbaa !7
  %7 = icmp ne ptr %5, %6
  br i1 %7, label %8, label %17

8:                                                ; preds = %2
  %9 = load ptr, ptr %4, align 8, !tbaa !7
  %10 = getelementptr inbounds nuw %"class.Iex_3_4::BaseExc", ptr %9, i32 0, i32 1
  %11 = getelementptr inbounds nuw %"class.Iex_3_4::BaseExc", ptr %5, i32 0, i32 1
  %12 = call noundef nonnull align 8 dereferenceable(32) ptr @_ZNSt7__cxx1112basic_stringIcSt11char_traitsIcESaIcEEaSERKS4_(ptr noundef nonnull align 8 dereferenceable(32) %11, ptr noundef nonnull align 8 dereferenceable(32) %10)
  %13 = load ptr, ptr %4, align 8, !tbaa !7
  %14 = getelementptr inbounds nuw %"class.Iex_3_4::BaseExc", ptr %13, i32 0, i32 2
  %15 = getelementptr inbounds nuw %"class.Iex_3_4::BaseExc", ptr %5, i32 0, i32 2
  %16 = call noundef nonnull align 8 dereferenceable(32) ptr @_ZNSt7__cxx1112basic_stringIcSt11char_traitsIcESaIcEEaSERKS4_(ptr noundef nonnull align 8 dereferenceable(32) %15, ptr noundef nonnull align 8 dereferenceable(32) %14)
  br label %17

17:                                               ; preds = %8, %2
  ret ptr %5
}

; Function Attrs: mustprogress uwtable
define noundef nonnull align 8 dereferenceable(72) ptr @_ZN7Iex_3_47MathExcaSERS0_(ptr noundef nonnull align 8 dereferenceable(72) %0, ptr noundef nonnull align 8 dereferenceable(72) %1) #1 align 2 {
  %3 = alloca ptr, align 8
  %4 = alloca ptr, align 8
  store ptr %0, ptr %3, align 8, !tbaa !32
  store ptr %1, ptr %4, align 8, !tbaa !32
  %5 = load ptr, ptr %3, align 8
  %6 = load ptr, ptr %4, align 8, !tbaa !32
  %7 = call noundef nonnull align 8 dereferenceable(72) ptr @_ZN7Iex_3_47BaseExcaSERKS0_(ptr noundef nonnull align 8 dereferenceable(72) %5, ptr noundef nonnull align 8 dereferenceable(72) %6)
  ret ptr %5
}

; Function Attrs: mustprogress nounwind uwtable
define noundef nonnull align 8 dereferenceable(72) ptr @_ZN7Iex_3_414InvalidFpOpExcaSEOS0_(ptr noundef nonnull align 8 dereferenceable(72) %0, ptr noundef nonnull align 8 dereferenceable(72) %1) #0 align 2 personality ptr @__gxx_personality_v0 {
  %3 = alloca ptr, align 8
  %4 = alloca ptr, align 8
  store ptr %0, ptr %3, align 8, !tbaa !360
  store ptr %1, ptr %4, align 8, !tbaa !360
  %5 = load ptr, ptr %3, align 8
  %6 = load ptr, ptr %4, align 8, !tbaa !360
  %7 = invoke noundef nonnull align 8 dereferenceable(72) ptr @_ZN7Iex_3_47MathExcaSERS0_(ptr noundef nonnull align 8 dereferenceable(72) %5, ptr noundef nonnull align 8 dereferenceable(72) %6)
          to label %8 unwind label %9

8:                                                ; preds = %2
  ret ptr %5

9:                                                ; preds = %2
  %10 = landingpad { ptr, i32 }
          catch ptr null
  %11 = extractvalue { ptr, i32 } %10, 0
  call void @__clang_call_terminate(ptr %11) #16
  unreachable
}